; Function Attrs: nofree norecurse nosync nounwind memory(readwrite, inaccessiblemem: none) uwtable
define void @OSQPVectorf_minus(ptr noundef readonly %0, ptr noundef readonly %1, ptr nocapture noundef readonly %2) local_unnamed_addr #7 {
  %4 = getelementptr inbounds i8, ptr %1, i64 8
  %5 = load i64, ptr %4, align 8
  %6 = load ptr, ptr %1, align 8
  %7 = load ptr, ptr %2, align 8
  %8 = load ptr, ptr %0, align 8
  %9 = icmp eq ptr %0, %1
  %10 = icmp sgt i64 %5, 0
  br i1 %9, label %.preheader, label %.preheader21

.preheader21:                                     ; preds = %3
  br i1 %10, label %.lr.ph, label %.loopexit

.preheader:                                       ; preds = %3
  br i1 %10, label %.lr.ph25, label %.loopexit

.lr.ph25:                                         ; preds = %.preheader, %.lr.ph25
  %.024 = phi i64 [ %16, %.lr.ph25 ], [ 0, %.preheader ]
  %11 = getelementptr inbounds double, ptr %7, i64 %.024
  %12 = load double, ptr %11, align 8
  %13 = getelementptr inbounds double, ptr %8, i64 %.024
  %14 = load double, ptr %13, align 8
  %15 = fsub double %14, %12
  store double %15, ptr %13, align 8
  %16 = add nuw nsw i64 %.024, 1
  %exitcond27.not = icmp eq i64 %16, %5
  br i1 %exitcond27.not, label %.loopexit, label %.lr.ph25, !llvm.loop !22

.lr.ph:                                           ; preds = %.preheader21, %.lr.ph
  %.123 = phi i64 [ %23, %.lr.ph ], [ 0, %.preheader21 ]
  %17 = getelementptr inbounds double, ptr %6, i64 %.123
  %18 = load double, ptr %17, align 8
  %19 = getelementptr inbounds double, ptr %7, i64 %.123
  %20 = load double, ptr %19, align 8
  %21 = fsub double %18, %20
  %22 = getelementptr inbounds double, ptr %8, i64 %.123
  store double %21, ptr %22, align 8
  %23 = add nuw nsw i64 %.123, 1
  %exitcond.not = icmp eq i64 %23, %5
  br i1 %exitcond.not, label %.loopexit, label %.lr.ph, !llvm.loop !23

.loopexit:                                        ; preds = %.lr.ph, %.lr.ph25, %.preheader21, %.preheader
  ret void
}